target datalayout = "e-m:e-p270:32:32-p271:32:32-p272:64:64-i64:64-i128:128-f80:128-n8:16:32:64-S128"
target triple = "x86_64-pc-linux-gnu"

@_ZN20AbstractDisassembler12_align_instrE = hidden global i8 1, align 1
@.str.28 = private unnamed_addr constant [3 x i8] c"| \00", align 1

; Function Attrs: mustprogress nounwind uwtable
define linkonce_odr hidden noundef zeroext i1 @_ZN20AbstractDisassembler11align_instrEv() #1 comdat align 2 {
  %1 = load i8, ptr @_ZN20AbstractDisassembler12_align_instrE, align 1
  %2 = trunc i8 %1 to i1
  ret i1 %2
}

; Function Attrs: mustprogress nounwind uwtable
define linkonce_odr hidden noundef zeroext i1 @_ZN20AbstractDisassembler13start_newlineEi(i32 noundef %0) #1 comdat align 2 {
  %2 = alloca i32, align 4
  store i32 %0, ptr %2, align 4
  %3 = load i32, ptr %2, align 4
  %4 = icmp sge i32 %3, 32
  ret i1 %4
}

; Function Attrs: mustprogress nounwind uwtable
define hidden noundef i32 @_ZN20AbstractDisassembler15print_delimiterEP12outputStream(ptr noundef %0) #1 align 2 {
  %2 = alloca i32, align 4
  %3 = alloca ptr, align 8
  store ptr %0, ptr %3, align 8
  %4 = call noundef zeroext i1 @_ZN20AbstractDisassembler11align_instrEv()
  br i1 %4, label %5, label %7

5:                                                ; preds = %1
  %6 = load ptr, ptr %3, align 8
  call void (ptr, ptr, ...) @_ZN12outputStream5printEPKcz(ptr noundef nonnull align 8 dereferenceable(56) %6, ptr noundef @.str.28)
  store i32 2, ptr %2, align 4
  br label %8

7:                                                ; preds = %1
  store i32 0, ptr %2, align 4
  br label %8

8:                                                ; preds = %7, %5
  %9 = load i32, ptr %2, align 4
  ret i32 %9
}

; Function Attrs: mustprogress nounwind uwtable
define linkonce_odr hidden noundef i32 @_ZN9Assembler9instr_lenEPh(ptr noundef %0) #1 comdat align 2 {
  %2 = alloca ptr, align 8
  store ptr %0, ptr %2, align 8
  ret i32 4
}

; Function Attrs: mustprogress nounwind uwtable
define hidden void @_ZN20AbstractDisassembler21decode_range_abstractEPhS0_S0_S0_P12outputStreami(ptr noundef %0, ptr noundef %1, ptr noundef %2, ptr noundef %3, ptr noundef %4, i32 noundef %5) #1 align 2 {
  %7 = alloca ptr, align 8
  %8 = alloca ptr, align 8
  %9 = alloca ptr, align 8
  %10 = alloca ptr, align 8
  %11 = alloca ptr, align 8
  %12 = alloca i32, align 4
  %13 = alloca i32, align 4
  %14 = alloca ptr, align 8
  %15 = alloca i32, align 4
  store ptr %0, ptr %7, align 8
  store ptr %1, ptr %8, align 8
  store ptr %2, ptr %9, align 8
  store ptr %3, ptr %10, align 8
  store ptr %4, ptr %11, align 8
  store i32 %5, ptr %12, align 4
  store i32 0, ptr %13, align 4
  %16 = load ptr, ptr %7, align 8
  store ptr %16, ptr %14, align 8
  br label %17

17:                                               ; preds = %63, %6
  %18 = load ptr, ptr %14, align 8
  %19 = icmp ne ptr %18, null
  br i1 %19, label %20, label %24

20:                                               ; preds = %17
  %21 = load ptr, ptr %14, align 8
  %22 = load ptr, ptr %8, align 8
  %23 = icmp ult ptr %21, %22
  br label %24

24:                                               ; preds = %20, %17
  %25 = phi i1 [ false, %17 ], [ %23, %20 ]
  br i1 %25, label %26, label %64

26:                                               ; preds = %24
  %27 = load ptr, ptr %14, align 8
  %28 = call noundef i32 @_ZN9Assembler9instr_lenEPh(ptr noundef %27)
  store i32 %28, ptr %15, align 4
  %29 = load i32, ptr %13, align 4
  %30 = icmp eq i32 %29, 0
  br i1 %30, label %31, label %37

31:                                               ; preds = %26
  %32 = load ptr, ptr %14, align 8
  %33 = load ptr, ptr %9, align 8
  %34 = load ptr, ptr %10, align 8
  %35 = load ptr, ptr %11, align 8
  %36 = call noundef i32 @_ZN20AbstractDisassembler14print_locationEPhS0_S0_P12outputStreambb(ptr noundef %32, ptr noundef %33, ptr noundef %34, ptr noundef %35, i1 noundef zeroext false, i1 noundef zeroext false)
  br label %40

37:                                               ; preds = %26
  %38 = load ptr, ptr %11, align 8
  %39 = call noundef i32 @_ZN20AbstractDisassembler15print_delimiterEP12outputStream(ptr noundef %38)
  br label %40

40:                                               ; preds = %37, %31
  %41 = load ptr, ptr %14, align 8
  %42 = load i32, ptr %15, align 4
  %43 = sext i32 %42 to i64
  %44 = getelementptr inbounds i8, ptr %41, i64 %43
  %45 = load ptr, ptr %8, align 8
  %46 = icmp ule ptr %44, %45
  br i1 %46, label %47, label %53

47:                                               ; preds = %40
  %48 = load ptr, ptr %14, align 8
  %49 = load ptr, ptr %11, align 8
  %50 = load i32, ptr %15, align 4
  %51 = load i32, ptr %12, align 4
  %52 = call noundef ptr @_ZN20AbstractDisassembler27decode_instruction_abstractEPhP12outputStreamii(ptr noundef %48, ptr noundef %49, i32 noundef %50, i32 noundef %51)
  store ptr %52, ptr %14, align 8
  br label %55

53:                                               ; preds = %40
  %54 = load ptr, ptr %8, align 8
  store ptr %54, ptr %14, align 8
  br label %55

55:                                               ; preds = %53, %47
  %56 = load i32, ptr %15, align 4
  %57 = load i32, ptr %13, align 4
  %58 = add nsw i32 %57, %56
  store i32 %58, ptr %13, align 4
  %59 = load i32, ptr %13, align 4
  %60 = call noundef zeroext i1 @_ZN20AbstractDisassembler13start_newlineEi(i32 noundef %59)
  br i1 %60, label %61, label %63

61:                                               ; preds = %55
  %62 = load ptr, ptr %11, align 8
  call void @_ZN12outputStream2crEv(ptr noundef nonnull align 8 dereferenceable(56) %62)
  store i32 0, ptr %13, align 4
  br label %63

63:                                               ; preds = %61, %55
  br label %17, !llvm.loop !13

64:                                               ; preds = %24
  ret void
}