; Function Attrs: mustprogress nounwind uwtable
define hidden void @_ZN20AbstractDisassembler21decode_range_abstractEPhS0_S0_S0_P12outputStreami(ptr noundef %0, ptr noundef %1, ptr noundef %2, ptr noundef %3, ptr noundef %4, i32 noundef %5) local_unnamed_addr #0 align 2 {
  %7 = icmp ne ptr %0, null
  %8 = icmp ult ptr %0, %1
  %9 = and i1 %7, %8
  br i1 %9, label %.lr.ph, label %._crit_edge

.lr.ph:                                           ; preds = %6, %24
  %.026 = phi i32 [ %.1, %24 ], [ 0, %6 ]
  %.02225 = phi ptr [ %.123, %24 ], [ %0, %6 ]
  %10 = icmp eq i32 %.026, 0
  br i1 %10, label %11, label %13

11:                                               ; preds = %.lr.ph
  %12 = tail call noundef i32 @_ZN20AbstractDisassembler14print_locationEPhS0_S0_P12outputStreambb(ptr noundef nonnull %.02225, ptr noundef %2, ptr noundef %3, ptr noundef %4, i1 noundef zeroext false, i1 noundef zeroext false)
  br label %_ZN20AbstractDisassembler15print_delimiterEP12outputStream.exit

13:                                               ; preds = %.lr.ph
  %14 = load i8, ptr @_ZN20AbstractDisassembler12_align_instrE, align 1
  %15 = trunc i8 %14 to i1
  br i1 %15, label %16, label %_ZN20AbstractDisassembler15print_delimiterEP12outputStream.exit

16:                                               ; preds = %13
  tail call void (ptr, ptr, ...) @_ZN12outputStream5printEPKcz(ptr noundef nonnull align 8 dereferenceable(56) %4, ptr noundef nonnull @.str.28) #3
  br label %_ZN20AbstractDisassembler15print_delimiterEP12outputStream.exit

_ZN20AbstractDisassembler15print_delimiterEP12outputStream.exit: ; preds = %16, %13, %11
  %17 = getelementptr inbounds i8, ptr %.02225, i64 4
  %.not = icmp ugt ptr %17, %1
  br i1 %.not, label %20, label %18

18:                                               ; preds = %_ZN20AbstractDisassembler15print_delimiterEP12outputStream.exit
  %19 = tail call noundef ptr @_ZN20AbstractDisassembler27decode_instruction_abstractEPhP12outputStreamii(ptr noundef nonnull %.02225, ptr noundef %4, i32 noundef 4, i32 noundef %5)
  br label %20

20:                                               ; preds = %_ZN20AbstractDisassembler15print_delimiterEP12outputStream.exit, %18
  %.123 = phi ptr [ %19, %18 ], [ %1, %_ZN20AbstractDisassembler15print_delimiterEP12outputStream.exit ]
  %21 = add nsw i32 %.026, 4
  %22 = icmp sgt i32 %.026, 27
  br i1 %22, label %23, label %24

23:                                               ; preds = %20
  tail call void @_ZN12outputStream2crEv(ptr noundef nonnull align 8 dereferenceable(56) %4) #3
  br label %24

24:                                               ; preds = %23, %20
  %.1 = phi i32 [ 0, %23 ], [ %21, %20 ]
  %25 = icmp ne ptr %.123, null
  %26 = icmp ult ptr %.123, %1
  %27 = and i1 %25, %26
  br i1 %27, label %.lr.ph, label %._crit_edge, !llvm.loop !12

._crit_edge:                                      ; preds = %24, %6
  ret void
}